; Listing generated by Microsoft (R) Optimizing Compiler Version 15.00.30729.01 

	TITLE	k:\Progs to install\My Documents\Visual Studio 2008\Projects\Intro 3D Game\Mine\Pick\d3dUtility.cpp
	.686P
	.XMM
	include listing.inc
	.model	flat

INCLUDELIB OLDNAMES

PUBLIC	??_C@_0P@GHFPNOJB@bad?5allocation?$AA@		; `string'
PUBLIC	??DD3DXCOLOR@@QBE?AU0@M@Z			; D3DXCOLOR::operator*
PUBLIC	??BD3DXCOLOR@@QAEAAU_D3DCOLORVALUE@@XZ		; D3DXCOLOR::operator _D3DCOLORVALUE &
PUBLIC	??DD3DXMATRIX@@QBE?AU0@ABU0@@Z			; D3DXMATRIX::operator*
PUBLIC	??0D3DXCOLOR@@QAE@MMMM@Z			; D3DXCOLOR::D3DXCOLOR
PUBLIC	?D3DXMatrixIdentity@@YAPAUD3DXMATRIX@@PAU1@@Z	; D3DXMatrixIdentity
PUBLIC	??0Vertex@d3d@@QAE@MMMMMMMM@Z			; d3d::Vertex::Vertex
PUBLIC	??$Release@PAUID3DXMesh@@@d3d@@YAXPAUID3DXMesh@@@Z ; d3d::Release<ID3DXMesh *>
PUBLIC	??$Release@PAUIDirect3DVertexBuffer9@@@d3d@@YAXPAUIDirect3DVertexBuffer9@@@Z ; d3d::Release<IDirect3DVertexBuffer9 *>
PUBLIC	??$Release@PAUIDirect3DTexture9@@@d3d@@YAXPAUIDirect3DTexture9@@@Z ; d3d::Release<IDirect3DTexture9 *>
PUBLIC	??0D3DXCOLOR@@QAE@K@Z				; D3DXCOLOR::D3DXCOLOR
PUBLIC	??_C@_0P@GPIOMMGB@Graphics?5Issue?$AA@		; `string'
PUBLIC	??_C@_0GA@HDELLGOC@DirectX?5out?5of?5date?5?3?$CJ?6?5Would?5yo@ ; `string'
PUBLIC	??_C@_0DD@BCJLJMCC@http?3?1?1www?4microsoft?4com?1downloa@ ; `string'
PUBLIC	??_C@_04PMOCAHAA@open?$AA@			; `string'
PUBLIC	??_C@_0BL@KDJMLCOF@Direct3DCreate9?$CI?$CJ?5?9?5FAILED?$AA@ ; `string'
PUBLIC	??_C@_0L@HJDEDEOP@desert?4bmp?$AA@		; `string'
EXTRN	__imp__ShowWindow@8:PROC
EXTRN	__imp__MessageBoxA@16:PROC
EXTRN	__imp__ShellExecuteA@24:PROC
EXTRN	_Direct3DCreate9@4:PROC
EXTRN	_D3DXCheckVersion@8:PROC
EXTRN	_rand:PROC
EXTRN	_D3DXCreateSphere@24:PROC
EXTRN	_D3DXMatrixMultiply@12:PROC
EXTRN	_D3DXMatrixScaling@16:PROC
EXTRN	_D3DXMatrixTranslation@16:PROC
EXTRN	_D3DXMatrixRotationX@8:PROC
EXTRN	_D3DXCreateTextureFromFileA@12:PROC
EXTRN	_D3DXCreateCylinder@32:PROC
;	COMDAT ?SphereMesh@?1??DrawSphere@d3d@@YA_NPAUIDirect3DDevice9@@UD3DXVECTOR3@@MMU_D3DMATERIAL9@@@Z@4PAUID3DXMesh@@A
_BSS	SEGMENT
?SphereMesh@?1??DrawSphere@d3d@@YA_NPAUIDirect3DDevice9@@UD3DXVECTOR3@@MMU_D3DMATERIAL9@@@Z@4PAUID3DXMesh@@A DD 01H DUP (?) ; `d3d::DrawSphere'::`2'::SphereMesh
_BSS	ENDS
;	COMDAT ?floor@?1??DrawBasicScene@d3d@@YA_NPAUIDirect3DDevice9@@M@Z@4PAUIDirect3DVertexBuffer9@@A
_BSS	SEGMENT
?floor@?1??DrawBasicScene@d3d@@YA_NPAUIDirect3DDevice9@@M@Z@4PAUIDirect3DVertexBuffer9@@A DD 01H DUP (?) ; `d3d::DrawBasicScene'::`2'::floor
_BSS	ENDS
;	COMDAT ?tex@?1??DrawBasicScene@d3d@@YA_NPAUIDirect3DDevice9@@M@Z@4PAUIDirect3DTexture9@@A
_BSS	SEGMENT
?tex@?1??DrawBasicScene@d3d@@YA_NPAUIDirect3DDevice9@@M@Z@4PAUIDirect3DTexture9@@A DD 01H DUP (?) ; `d3d::DrawBasicScene'::`2'::tex
_BSS	ENDS
;	COMDAT ?pillar@?1??DrawBasicScene@d3d@@YA_NPAUIDirect3DDevice9@@M@Z@4PAUID3DXMesh@@A
_BSS	SEGMENT
?pillar@?1??DrawBasicScene@d3d@@YA_NPAUIDirect3DDevice9@@M@Z@4PAUID3DXMesh@@A DD 01H DUP (?) ; `d3d::DrawBasicScene'::`2'::pillar
;	COMDAT ??_C@_0L@HJDEDEOP@desert?4bmp?$AA@
CONST	SEGMENT
??_C@_0L@HJDEDEOP@desert?4bmp?$AA@ DB 'desert.bmp', 00H	; `string'
CONST	ENDS
;	COMDAT ??_C@_0BL@KDJMLCOF@Direct3DCreate9?$CI?$CJ?5?9?5FAILED?$AA@
CONST	SEGMENT
??_C@_0BL@KDJMLCOF@Direct3DCreate9?$CI?$CJ?5?9?5FAILED?$AA@ DB 'Direct3DC'
	DB	'reate9() - FAILED', 00H			; `string'
CONST	ENDS
;	COMDAT ??_C@_04PMOCAHAA@open?$AA@
CONST	SEGMENT
??_C@_04PMOCAHAA@open?$AA@ DB 'open', 00H		; `string'
CONST	ENDS
;	COMDAT ??_C@_0DD@BCJLJMCC@http?3?1?1www?4microsoft?4com?1downloa@
CONST	SEGMENT
??_C@_0DD@BCJLJMCC@http?3?1?1www?4microsoft?4com?1downloa@ DB 'http://www'
	DB	'.microsoft.com/downloads/en/default.aspx', 00H ; `string'
CONST	ENDS
;	COMDAT ??_C@_0GA@HDELLGOC@DirectX?5out?5of?5date?5?3?$CJ?6?5Would?5yo@
CONST	SEGMENT
??_C@_0GA@HDELLGOC@DirectX?5out?5of?5date?5?3?$CJ?6?5Would?5yo@ DB 'Direc'
	DB	'tX out of date :)', 0aH, ' Would you like to go to the update'
	DB	' site? ', 0aH, 09H, 09H, 09H, '(DirectX End-User Runtime)', 00H ; `string'
CONST	ENDS
;	COMDAT ??_C@_0P@GPIOMMGB@Graphics?5Issue?$AA@
CONST	SEGMENT
??_C@_0P@GPIOMMGB@Graphics?5Issue?$AA@ DB 'Graphics Issue', 00H ; `string'
CONST	ENDS
;	COMDAT ??_C@_0P@GHFPNOJB@bad?5allocation?$AA@
CONST	SEGMENT
??_C@_0P@GHFPNOJB@bad?5allocation?$AA@ DB 'bad allocation', 00H ; `string'
__bad_alloc_Message DD FLAT:??_C@_0P@GHFPNOJB@bad?5allocation?$AA@
; Function compile flags: /Ogtpy
;	COMDAT ??$Release@PAUID3DXMesh@@@d3d@@YAXPAUID3DXMesh@@@Z
_TEXT	SEGMENT
??$Release@PAUID3DXMesh@@@d3d@@YAXPAUID3DXMesh@@@Z PROC	; d3d::Release<ID3DXMesh *>, COMDAT
; _t$ = eax
; File k:\progs to install\my documents\visual studio 2008\projects\intro 3d game\mine\pick\d3dutility.h
; Line 41
	test	eax, eax
	je	SHORT $LN1@Release@3
; Line 43
	mov	ecx, DWORD PTR [eax]
	mov	edx, DWORD PTR [ecx+8]
	push	eax
	call	edx
$LN1@Release@3:
; Line 46
	ret	0
??$Release@PAUID3DXMesh@@@d3d@@YAXPAUID3DXMesh@@@Z ENDP	; d3d::Release<ID3DXMesh *>
_TEXT	ENDS
PUBLIC	__real@40dfffc000000000
PUBLIC	?randf@d3d@@YAMXZ				; d3d::randf
;	COMDAT __real@40dfffc000000000
; File k:\progs to install\my documents\visual studio 2008\projects\intro 3d game\mine\pick\d3dutility.cpp
CONST	SEGMENT
__real@40dfffc000000000 DQ 040dfffc000000000r	; 32767
; Function compile flags: /Ogtpy
CONST	ENDS
;	COMDAT ?randf@d3d@@YAMXZ
_TEXT	SEGMENT
tv72 = -4						; size = 4
tv69 = -4						; size = 4
?randf@d3d@@YAMXZ PROC					; d3d::randf, COMDAT
; Line 262
	push	ecx
; Line 263
	call	_rand
	mov	DWORD PTR tv72[esp+4], eax
	fild	DWORD PTR tv72[esp+4]
	fdiv	QWORD PTR __real@40dfffc000000000
	fstp	DWORD PTR tv69[esp+4]
	fld	DWORD PTR tv69[esp+4]
; Line 264
	pop	ecx
	ret	0
?randf@d3d@@YAMXZ ENDP					; d3d::randf
_TEXT	ENDS
PUBLIC	?InitD3D@d3d@@YA_NPAUHWND__@@HH_NW4_D3DDEVTYPE@@PAPAUIDirect3DDevice9@@PAU_D3DDISPLAYMODE@@@Z ; d3d::InitD3D
; Function compile flags: /Ogtpy
;	COMDAT ?InitD3D@d3d@@YA_NPAUHWND__@@HH_NW4_D3DDEVTYPE@@PAPAUIDirect3DDevice9@@PAU_D3DDISPLAYMODE@@@Z
_TEXT	SEGMENT
_d3dpp$ = -360						; size = 56
_caps$ = -304						; size = 304
_hwnd$ = 8						; size = 4
?InitD3D@d3d@@YA_NPAUHWND__@@HH_NW4_D3DDEVTYPE@@PAPAUIDirect3DDevice9@@PAU_D3DDISPLAYMODE@@@Z PROC ; d3d::InitD3D, COMDAT
; Line 20
	sub	esp, 360				; 00000168H
	push	ebx
	push	ebp
	mov	ebp, DWORD PTR _hwnd$[esp+364]
	push	esi
	push	edi
; Line 65
	push	5
	push	ebp
	call	DWORD PTR __imp__ShowWindow@8
; Line 74
	push	41					; 00000029H
	push	32					; 00000020H
	call	_D3DXCheckVersion@8
	test	eax, eax
	jne	SHORT $LN7@InitD3D
; Line 78
	push	1
	push	OFFSET ??_C@_0P@GPIOMMGB@Graphics?5Issue?$AA@
	push	OFFSET ??_C@_0GA@HDELLGOC@DirectX?5out?5of?5date?5?3?$CJ?6?5Would?5yo@
	xor	ebx, ebx
	push	ebx
	call	DWORD PTR __imp__MessageBoxA@16
; Line 81
	push	1
	push	ebx
	push	ebx
	push	OFFSET ??_C@_0DD@BCJLJMCC@http?3?1?1www?4microsoft?4com?1downloa@
	push	OFFSET ??_C@_04PMOCAHAA@open?$AA@
	push	ebx
	call	DWORD PTR __imp__ShellExecuteA@24
; Line 83
	xor	al, al
; Line 169
	pop	edi
	pop	esi
	pop	ebp
	pop	ebx
	add	esp, 360				; 00000168H
	ret	0
$LN7@InitD3D:
; Line 87
	push	32					; 00000020H
	call	_Direct3DCreate9@4
	mov	edi, eax
; Line 89
	xor	ebx, ebx
	cmp	edi, ebx
	jne	SHORT $LN5@InitD3D
; Line 91
	push	ebx
	push	ebx
	push	OFFSET ??_C@_0BL@KDJMLCOF@Direct3DCreate9?$CI?$CJ?5?9?5FAILED?$AA@
	push	ebx
	call	DWORD PTR __imp__MessageBoxA@16
; Line 92
	xor	al, al
; Line 169
	pop	edi
	pop	esi
	pop	ebp
	pop	ebx
	add	esp, 360				; 00000168H
	ret	0
$LN5@InitD3D:
; Line 99
	mov	eax, DWORD PTR [edi]
	mov	edx, DWORD PTR [eax+56]
	lea	ecx, DWORD PTR _caps$[esp+376]
	push	ecx
	push	1
	push	ebx
	push	edi
	call	edx
; Line 102
	mov	esi, DWORD PTR _caps$[esp+404]
	and	esi, 65536				; 00010000H
	neg	esi
; Line 139
	push	OFFSET ?Device@@3PAUIDirect3DDevice9@@A	; Device
	mov	edx, 768				; 00000300H
	sbb	esi, esi
	mov	DWORD PTR _d3dpp$[esp+384], edx
	mov	DWORD PTR ?DisplayMde@@3U_D3DDISPLAYMODE@@A+4, edx
	lea	edx, DWORD PTR _d3dpp$[esp+380]
	push	edx
	and	esi, 32					; 00000020H
	mov	eax, 1
	add	esi, 32					; 00000020H
	push	esi
	push	ebp
	mov	ecx, 21					; 00000015H
	push	eax
	mov	DWORD PTR _d3dpp$[esp+408], eax
	mov	DWORD PTR _d3dpp$[esp+420], eax
	mov	DWORD PTR _d3dpp$[esp+428], eax
	mov	DWORD PTR _d3dpp$[esp+432], eax
	mov	DWORD PTR _d3dpp$[esp+396], 1024	; 00000400H
	mov	DWORD PTR _d3dpp$[esp+404], ecx
	mov	DWORD PTR _d3dpp$[esp+412], ebx
	mov	DWORD PTR _d3dpp$[esp+416], ebx
	mov	DWORD PTR _d3dpp$[esp+424], ebp
	mov	DWORD PTR _d3dpp$[esp+436], 75		; 0000004bH
	mov	DWORD PTR _d3dpp$[esp+440], ebx
	mov	DWORD PTR _d3dpp$[esp+444], ebx
	mov	DWORD PTR _d3dpp$[esp+448], -2147483648	; 80000000H
	mov	DWORD PTR ?DisplayMde@@3U_D3DDISPLAYMODE@@A+12, ecx
	mov	DWORD PTR ?DisplayMde@@3U_D3DDISPLAYMODE@@A, 1024 ; 00000400H
	mov	DWORD PTR ?DisplayMde@@3U_D3DDISPLAYMODE@@A+8, ebx
	mov	ecx, DWORD PTR [edi]
	mov	eax, DWORD PTR [ecx+64]
	push	ebx
	push	edi
	call	eax
; Line 141
	test	eax, eax
	jge	SHORT $LN1@InitD3D
; Line 152
	push	OFFSET ?Device@@3PAUIDirect3DDevice9@@A	; Device
	lea	edx, DWORD PTR _d3dpp$[esp+380]
	push	edx
	push	esi
	push	ebp
	push	1
	mov	DWORD PTR _d3dpp$[esp+436], 80		; 00000050H
	mov	ecx, DWORD PTR [edi]
	mov	eax, DWORD PTR [ecx+64]
	push	ebx
	push	edi
	call	eax
; Line 154
	test	eax, eax
	jge	SHORT $LN1@InitD3D
; Line 156
	mov	ecx, DWORD PTR [edi]
	mov	edx, DWORD PTR [ecx+8]
	push	edi
	call	edx
; Line 162
	xor	al, al
; Line 169
	pop	edi
	pop	esi
	pop	ebp
	pop	ebx
	add	esp, 360				; 00000168H
	ret	0
$LN1@InitD3D:
; Line 166
	mov	eax, DWORD PTR [edi]
	mov	ecx, DWORD PTR [eax+8]
	push	edi
	call	ecx
; Line 169
	pop	edi
	pop	esi
	pop	ebp
	mov	al, 1
	pop	ebx
	add	esp, 360				; 00000168H
	ret	0
?InitD3D@d3d@@YA_NPAUHWND__@@HH_NW4_D3DDEVTYPE@@PAPAUIDirect3DDevice9@@PAU_D3DDISPLAYMODE@@@Z ENDP ; d3d::InitD3D
; Function compile flags: /Ogtpy
_TEXT	ENDS
;	COMDAT ?D3DXMatrixIdentity@@YAPAUD3DXMATRIX@@PAU1@@Z
_TEXT	SEGMENT
?D3DXMatrixIdentity@@YAPAUD3DXMATRIX@@PAU1@@Z PROC	; D3DXMatrixIdentity, COMDAT
; _pOut$ = eax
; File g:\program files\microsoft directx sdk (march 2009)\include\d3dx9math.inl
; Line 1997
	fldz
	fst	DWORD PTR [eax+56]
	fst	DWORD PTR [eax+52]
	fst	DWORD PTR [eax+48]
	fst	DWORD PTR [eax+44]
	fst	DWORD PTR [eax+36]
	fst	DWORD PTR [eax+32]
	fst	DWORD PTR [eax+28]
	fst	DWORD PTR [eax+24]
	fst	DWORD PTR [eax+16]
	fst	DWORD PTR [eax+12]
	fst	DWORD PTR [eax+8]
	fstp	DWORD PTR [eax+4]
; Line 1999
	fld1
	fst	DWORD PTR [eax+60]
	fst	DWORD PTR [eax+40]
	fst	DWORD PTR [eax+20]
	fstp	DWORD PTR [eax]
; Line 2001
	ret	0
?D3DXMatrixIdentity@@YAPAUD3DXMATRIX@@PAU1@@Z ENDP	; D3DXMatrixIdentity
; Function compile flags: /Ogtpy
_TEXT	ENDS
;	COMDAT ??BD3DXCOLOR@@QAEAAU_D3DCOLORVALUE@@XZ
_TEXT	SEGMENT
??BD3DXCOLOR@@QAEAAU_D3DCOLORVALUE@@XZ PROC		; D3DXCOLOR::operator _D3DCOLORVALUE &, COMDAT
; _this$ = eax
; Line 1448
	ret	0
??BD3DXCOLOR@@QAEAAU_D3DCOLORVALUE@@XZ ENDP		; D3DXCOLOR::operator _D3DCOLORVALUE &
; Function compile flags: /Ogtpy
_TEXT	ENDS
;	COMDAT ??0D3DXCOLOR@@QAE@MMMM@Z
_TEXT	SEGMENT
_fr$ = 8						; size = 4
_fg$ = 12						; size = 4
_fb$ = 16						; size = 4
_fa$ = 20						; size = 4
??0D3DXCOLOR@@QAE@MMMM@Z PROC				; D3DXCOLOR::D3DXCOLOR, COMDAT
; _this$ = eax
; Line 1398
	fld	DWORD PTR _fr$[esp-4]
	fstp	DWORD PTR [eax]
; Line 1399
	fld	DWORD PTR _fg$[esp-4]
	fstp	DWORD PTR [eax+4]
; Line 1400
	fld	DWORD PTR _fb$[esp-4]
	fstp	DWORD PTR [eax+8]
; Line 1401
	fld	DWORD PTR _fa$[esp-4]
	fstp	DWORD PTR [eax+12]
; Line 1402
	ret	16					; 00000010H
??0D3DXCOLOR@@QAE@MMMM@Z ENDP				; D3DXCOLOR::D3DXCOLOR
_TEXT	ENDS
PUBLIC	__real@3f70101020000000
;	COMDAT __real@3f70101020000000
CONST	SEGMENT
__real@3f70101020000000 DQ 03f70101020000000r	; 0.00392157
; Function compile flags: /Ogtpy
CONST	ENDS
;	COMDAT ??0D3DXCOLOR@@QAE@K@Z
_TEXT	SEGMENT
tv196 = -4						; size = 4
tv194 = -4						; size = 4
tv192 = -4						; size = 4
tv190 = -4						; size = 4
??0D3DXCOLOR@@QAE@K@Z PROC				; D3DXCOLOR::D3DXCOLOR, COMDAT
; _this$ = eax
; _dw$ = ecx
; Line 1353
	push	ecx
; Line 1355
	mov	edx, ecx
	shr	edx, 16					; 00000010H
	movzx	edx, dl
	mov	DWORD PTR tv196[esp+4], edx
; Line 1356
	mov	edx, ecx
	shr	edx, 8
	fild	DWORD PTR tv196[esp+4]
	movzx	edx, dl
	fld	QWORD PTR __real@3f70101020000000
	fmul	ST(1), ST(0)
	mov	DWORD PTR tv194[esp+4], edx
	fxch	ST(1)
; Line 1357
	movzx	edx, cl
	fstp	DWORD PTR [eax]
	fild	DWORD PTR tv194[esp+4]
	mov	DWORD PTR tv192[esp+4], edx
; Line 1358
	shr	ecx, 24					; 00000018H
	fmul	ST(0), ST(1)
	fstp	DWORD PTR [eax+4]
	fild	DWORD PTR tv192[esp+4]
	mov	DWORD PTR tv190[esp+4], ecx
	fmul	ST(0), ST(1)
	fstp	DWORD PTR [eax+8]
	fild	DWORD PTR tv190[esp+4]
	fmulp	ST(1), ST(0)
	fstp	DWORD PTR [eax+12]
; Line 1359
	pop	ecx
	ret	0
??0D3DXCOLOR@@QAE@K@Z ENDP				; D3DXCOLOR::D3DXCOLOR
PUBLIC	?DrawSphere@d3d@@YA_NPAUIDirect3DDevice9@@UD3DXVECTOR3@@MMU_D3DMATERIAL9@@@Z ; d3d::DrawSphere
; Function compile flags: /Ogtpy
;	COMDAT ?DrawSphere@d3d@@YA_NPAUIDirect3DDevice9@@UD3DXVECTOR3@@MMU_D3DMATERIAL9@@@Z
_TEXT	SEGMENT
_SphereTransform$87760 = -204				; size = 64
_ColTemp$87764 = -140					; size = 68
_TempMatrix$87761 = -68					; size = 64
_Vec$ = 8						; size = 12
_radius$ = 20						; size = 4
_Tranparency$ = 24					; size = 4
_Col$ = 28						; size = 68
?DrawSphere@d3d@@YA_NPAUIDirect3DDevice9@@UD3DXVECTOR3@@MMU_D3DMATERIAL9@@@Z PROC ; d3d::DrawSphere, COMDAT
; _Device$ = ebx
; File k:\progs to install\my documents\visual studio 2008\projects\intro 3d game\mine\pick\d3dutility.cpp
; Line 297
	sub	esp, 204				; 000000ccH
	push	esi
	push	edi
; Line 300
	test	ebx, ebx
	je	$LN5@DrawSphere
; Line 306
	cmp	DWORD PTR ?SphereMesh@?1??DrawSphere@d3d@@YA_NPAUIDirect3DDevice9@@UD3DXVECTOR3@@MMU_D3DMATERIAL9@@@Z@4PAUID3DXMesh@@A, 0
	fld1
	jne	SHORT $LN4@DrawSphere
; Line 307
	push	0
	push	OFFSET ?SphereMesh@?1??DrawSphere@d3d@@YA_NPAUIDirect3DDevice9@@UD3DXVECTOR3@@MMU_D3DMATERIAL9@@@Z@4PAUID3DXMesh@@A
	push	10					; 0000000aH
	push	10					; 0000000aH
	push	ecx
	fstp	DWORD PTR [esp]
	push	ebx
	call	_D3DXCreateSphere@24
	fld1
$LN4@DrawSphere:
; Line 309
	fldz
; Line 310
	sub	esp, 12					; 0000000cH
	fst	DWORD PTR _SphereTransform$87760[esp+280]
	lea	eax, DWORD PTR _SphereTransform$87760[esp+224]
	fst	DWORD PTR _SphereTransform$87760[esp+276]
	fst	DWORD PTR _SphereTransform$87760[esp+272]
	fst	DWORD PTR _SphereTransform$87760[esp+268]
	fst	DWORD PTR _SphereTransform$87760[esp+260]
	fst	DWORD PTR _SphereTransform$87760[esp+256]
	fst	DWORD PTR _SphereTransform$87760[esp+252]
	fst	DWORD PTR _SphereTransform$87760[esp+248]
	fst	DWORD PTR _SphereTransform$87760[esp+240]
	fst	DWORD PTR _SphereTransform$87760[esp+236]
	fst	DWORD PTR _SphereTransform$87760[esp+232]
	fstp	DWORD PTR _SphereTransform$87760[esp+228]
	fst	DWORD PTR _SphereTransform$87760[esp+284]
	fst	DWORD PTR _SphereTransform$87760[esp+264]
	fst	DWORD PTR _SphereTransform$87760[esp+244]
	fstp	DWORD PTR _SphereTransform$87760[esp+224]
	fld	DWORD PTR _radius$[esp+220]
	fst	DWORD PTR [esp+8]
	fst	DWORD PTR [esp+4]
	fstp	DWORD PTR [esp]
	push	eax
	call	_D3DXMatrixScaling@16
; Line 311
	fld	DWORD PTR _Vec$[esp+216]
	sub	esp, 12					; 0000000cH
	fstp	DWORD PTR [esp+8]
	lea	ecx, DWORD PTR _TempMatrix$87761[esp+224]
	fld	DWORD PTR _Vec$[esp+224]
	fstp	DWORD PTR [esp+4]
	fld	DWORD PTR _Vec$[esp+220]
	fstp	DWORD PTR [esp]
	push	ecx
	call	_D3DXMatrixTranslation@16
; Line 312
	lea	edx, DWORD PTR _TempMatrix$87761[esp+212]
	push	edx
	lea	eax, DWORD PTR _SphereTransform$87760[esp+216]
	push	eax
	mov	ecx, eax
	push	ecx
	call	_D3DXMatrixMultiply@12
; Line 313
	mov	edx, DWORD PTR [ebx]
	mov	ecx, DWORD PTR [edx+176]
	lea	eax, DWORD PTR _SphereTransform$87760[esp+212]
	push	eax
	push	256					; 00000100H
	push	ebx
	call	ecx
; Line 316
	fld	DWORD PTR _Tranparency$[esp+208]
; Line 317
	mov	edx, DWORD PTR [ebx]
	lea	eax, DWORD PTR _ColTemp$87764[esp+212]
	mov	ecx, 17					; 00000011H
	lea	esi, DWORD PTR _Col$[esp+208]
	lea	edi, DWORD PTR _ColTemp$87764[esp+212]
	rep movsd
	fstp	DWORD PTR _ColTemp$87764[esp+224]
	mov	ecx, DWORD PTR [edx+196]
	push	eax
	push	ebx
	call	ecx
; Line 318
	mov	eax, DWORD PTR ?SphereMesh@?1??DrawSphere@d3d@@YA_NPAUIDirect3DDevice9@@UD3DXVECTOR3@@MMU_D3DMATERIAL9@@@Z@4PAUID3DXMesh@@A
	test	eax, eax
	je	SHORT $LN18@DrawSphere
	mov	edx, DWORD PTR [eax]
	push	0
	push	eax
	mov	eax, DWORD PTR [edx+12]
	call	eax
; Line 326
	mov	al, 1
; Line 327
	pop	edi
	pop	esi
	add	esp, 204				; 000000ccH
	ret	0
$LN5@DrawSphere:
; Line 323
	mov	eax, DWORD PTR ?SphereMesh@?1??DrawSphere@d3d@@YA_NPAUIDirect3DDevice9@@UD3DXVECTOR3@@MMU_D3DMATERIAL9@@@Z@4PAUID3DXMesh@@A
	test	eax, eax
	je	SHORT $LN18@DrawSphere
; Line 324
	mov	ecx, DWORD PTR [eax]
	mov	edx, DWORD PTR [ecx+8]
	push	eax
	call	edx
$LN18@DrawSphere:
; Line 327
	pop	edi
	mov	al, 1
	pop	esi
	add	esp, 204				; 000000ccH
	ret	0
?DrawSphere@d3d@@YA_NPAUIDirect3DDevice9@@UD3DXVECTOR3@@MMU_D3DMATERIAL9@@@Z ENDP ; d3d::DrawSphere
_TEXT	ENDS
PUBLIC	??0BoundingSphere@d3d@@QAE@XZ			; d3d::BoundingSphere::BoundingSphere
; Function compile flags: /Ogtpy
;	COMDAT ??0BoundingSphere@d3d@@QAE@XZ
_TEXT	SEGMENT
??0BoundingSphere@d3d@@QAE@XZ PROC			; d3d::BoundingSphere::BoundingSphere, COMDAT
; Line 293
	fldz
; Line 294
	mov	eax, OFFSET ?RoostSphere@@3UBoundingSphere@d3d@@A ; RoostSphere
	fstp	DWORD PTR ?RoostSphere@@3UBoundingSphere@d3d@@A+12
	ret	0
??0BoundingSphere@d3d@@QAE@XZ ENDP			; d3d::BoundingSphere::BoundingSphere
_TEXT	ENDS
PUBLIC	__real@437a0000
PUBLIC	__real@c3160000
PUBLIC	__real@c3480000
PUBLIC	??0BoundingBox@d3d@@QAE@XZ			; d3d::BoundingBox::BoundingBox
;	COMDAT __real@437a0000
; File g:\program files\microsoft directx sdk (march 2009)\include\d3dx9math.h
CONST	SEGMENT
__real@437a0000 DD 0437a0000r			; 250
CONST	ENDS
;	COMDAT __real@c3160000
CONST	SEGMENT
__real@c3160000 DD 0c3160000r			; -150
CONST	ENDS
;	COMDAT __real@c3480000
CONST	SEGMENT
__real@c3480000 DD 0c3480000r			; -200
; Function compile flags: /Ogtpy
CONST	ENDS
;	COMDAT ??0BoundingBox@d3d@@QAE@XZ
_TEXT	SEGMENT
??0BoundingBox@d3d@@QAE@XZ PROC				; d3d::BoundingBox::BoundingBox, COMDAT
; File k:\progs to install\my documents\visual studio 2008\projects\intro 3d game\mine\pick\d3dutility.cpp
; Line 269
	fld	DWORD PTR __real@c3480000
; Line 276
	mov	eax, OFFSET ?RoostBox@@3UBoundingBox@d3d@@A ; RoostBox
	fst	DWORD PTR ?RoostBox@@3UBoundingBox@d3d@@A
	fstp	DWORD PTR ?RoostBox@@3UBoundingBox@d3d@@A+4
	fld	DWORD PTR __real@c3160000
	fstp	DWORD PTR ?RoostBox@@3UBoundingBox@d3d@@A+8
	fld	DWORD PTR _AttractDistMax
	fst	DWORD PTR ?RoostBox@@3UBoundingBox@d3d@@A+12
	fstp	DWORD PTR ?RoostBox@@3UBoundingBox@d3d@@A+16
	fld	DWORD PTR __real@437a0000
	fstp	DWORD PTR ?RoostBox@@3UBoundingBox@d3d@@A+20
	ret	0
??0BoundingBox@d3d@@QAE@XZ ENDP				; d3d::BoundingBox::BoundingBox
_TEXT	ENDS
PUBLIC	?InitMtrl@d3d@@YA?AU_D3DMATERIAL9@@UD3DXCOLOR@@000M@Z ; d3d::InitMtrl
; Function compile flags: /Ogtpy
;	COMDAT ?InitMtrl@d3d@@YA?AU_D3DMATERIAL9@@UD3DXCOLOR@@000M@Z
_TEXT	SEGMENT
_a$ = 8							; size = 16
_d$ = 24						; size = 16
_s$ = 40						; size = 16
_e$ = 56						; size = 16
_p$ = 72						; size = 4
?InitMtrl@d3d@@YA?AU_D3DMATERIAL9@@UD3DXCOLOR@@000M@Z PROC ; d3d::InitMtrl, COMDAT
; $T94696 = eax
; Line 253
	mov	ecx, DWORD PTR _a$[esp-4]
; Line 257
	fld	DWORD PTR _p$[esp-4]
	mov	edx, DWORD PTR _a$[esp]
	fstp	DWORD PTR [eax+64]
	mov	DWORD PTR [eax+16], ecx
	mov	ecx, DWORD PTR _a$[esp+4]
	mov	DWORD PTR [eax+20], edx
	mov	edx, DWORD PTR _a$[esp+8]
	mov	DWORD PTR [eax+24], ecx
	mov	ecx, DWORD PTR _d$[esp-4]
	mov	DWORD PTR [eax+28], edx
	mov	edx, DWORD PTR _d$[esp]
	mov	DWORD PTR [eax], ecx
	mov	ecx, DWORD PTR _d$[esp+4]
	mov	DWORD PTR [eax+4], edx
	mov	edx, DWORD PTR _d$[esp+8]
	mov	DWORD PTR [eax+8], ecx
	mov	ecx, DWORD PTR _s$[esp-4]
	mov	DWORD PTR [eax+12], edx
	mov	edx, DWORD PTR _s$[esp]
	mov	DWORD PTR [eax+32], ecx
	mov	ecx, DWORD PTR _s$[esp+4]
	mov	DWORD PTR [eax+36], edx
	mov	edx, DWORD PTR _s$[esp+8]
	mov	DWORD PTR [eax+40], ecx
	mov	ecx, DWORD PTR _e$[esp-4]
	mov	DWORD PTR [eax+44], edx
	mov	edx, DWORD PTR _e$[esp]
	mov	DWORD PTR [eax+48], ecx
	mov	ecx, DWORD PTR _e$[esp+4]
	mov	DWORD PTR [eax+52], edx
	mov	edx, DWORD PTR _e$[esp+8]
	mov	DWORD PTR [eax+56], ecx
	mov	DWORD PTR [eax+60], edx
; Line 259
	ret	0
?InitMtrl@d3d@@YA?AU_D3DMATERIAL9@@UD3DXCOLOR@@000M@Z ENDP ; d3d::InitMtrl
; Function compile flags: /Ogtpy
_TEXT	ENDS
;	COMDAT ??DD3DXCOLOR@@QBE?AU0@M@Z
_TEXT	SEGMENT
_f$ = 8							; size = 4
??DD3DXCOLOR@@QBE?AU0@M@Z PROC				; D3DXCOLOR::operator*, COMDAT
; _this$ = ecx
; ___$ReturnUdt$ = eax
; File g:\program files\microsoft directx sdk (march 2009)\include\d3dx9math.inl
; Line 1530
	fld	DWORD PTR [ecx]
	fld	DWORD PTR _f$[esp-4]
	fld	ST(0)
	fmulp	ST(2), ST(0)
	fxch	ST(1)
	fstp	DWORD PTR [eax]
	fld	DWORD PTR [ecx+4]
	fmul	ST(0), ST(1)
	fstp	DWORD PTR [eax+4]
	fld	DWORD PTR [ecx+8]
	fmul	ST(0), ST(1)
	fstp	DWORD PTR [eax+8]
	fmul	DWORD PTR [ecx+12]
	fstp	DWORD PTR [eax+12]
; Line 1531
	ret	4
??DD3DXCOLOR@@QBE?AU0@M@Z ENDP				; D3DXCOLOR::operator*
PUBLIC	__real@3fe3333340000000
PUBLIC	__real@3fd99999a0000000
PUBLIC	?InitDirectionalLight@d3d@@YA?AU_D3DLIGHT9@@PAUD3DXVECTOR3@@PAUD3DXCOLOR@@@Z ; d3d::InitDirectionalLight
;	COMDAT __real@3fe3333340000000
CONST	SEGMENT
__real@3fe3333340000000 DQ 03fe3333340000000r	; 0.6
CONST	ENDS
;	COMDAT __real@3fd99999a0000000
CONST	SEGMENT
__real@3fd99999a0000000 DQ 03fd99999a0000000r	; 0.4
; Function compile flags: /Ogtpy
CONST	ENDS
;	COMDAT ?InitDirectionalLight@d3d@@YA?AU_D3DLIGHT9@@PAUD3DXVECTOR3@@PAUD3DXCOLOR@@@Z
_TEXT	SEGMENT
$T94978 = -16						; size = 16
$T94977 = -16						; size = 16
?InitDirectionalLight@d3d@@YA?AU_D3DLIGHT9@@PAUD3DXVECTOR3@@PAUD3DXCOLOR@@@Z PROC ; d3d::InitDirectionalLight, COMDAT
; $T94976 = esi
; _direction$ = ebx
; _color$ = edi
; File k:\progs to install\my documents\visual studio 2008\projects\intro 3d game\mine\pick\d3dutility.cpp
; Line 196
	sub	esp, 16					; 00000010H
; Line 198
	push	104					; 00000068H
	push	0
	push	esi
	call	_memset
; Line 201
	fld	DWORD PTR [edi]
	fld	QWORD PTR __real@3fd99999a0000000
	mov	DWORD PTR [esi], 3
	fmul	ST(1), ST(0)
	fxch	ST(1)
	fstp	DWORD PTR $T94977[esp+28]
	mov	eax, DWORD PTR $T94977[esp+28]
	fld	DWORD PTR [edi+4]
	mov	DWORD PTR [esi+36], eax
	fmul	ST(0), ST(1)
	fstp	DWORD PTR $T94977[esp+32]
	mov	ecx, DWORD PTR $T94977[esp+32]
	fld	DWORD PTR [edi+8]
	mov	DWORD PTR [esi+40], ecx
	fmul	ST(0), ST(1)
; Line 202
	mov	ecx, DWORD PTR [edi]
	mov	DWORD PTR [esi+4], ecx
	mov	ecx, DWORD PTR [edi+12]
	fstp	DWORD PTR $T94977[esp+36]
	mov	edx, DWORD PTR $T94977[esp+36]
	mov	DWORD PTR [esi+44], edx
	fmul	DWORD PTR [edi+12]
	mov	edx, DWORD PTR [edi+4]
	mov	DWORD PTR [esi+8], edx
	fstp	DWORD PTR $T94977[esp+40]
	mov	eax, DWORD PTR $T94977[esp+40]
; Line 203
	fld	DWORD PTR [edi]
	mov	DWORD PTR [esi+48], eax
	fld	QWORD PTR __real@3fe3333340000000
	mov	eax, DWORD PTR [edi+8]
	fmul	ST(1), ST(0)
	mov	DWORD PTR [esi+12], eax
	fxch	ST(1)
	mov	DWORD PTR [esi+16], ecx
	fstp	DWORD PTR $T94978[esp+28]
	mov	edx, DWORD PTR $T94978[esp+28]
	fld	DWORD PTR [edi+4]
	mov	DWORD PTR [esi+20], edx
	fmul	ST(0), ST(1)
	fstp	DWORD PTR $T94978[esp+32]
	mov	eax, DWORD PTR $T94978[esp+32]
	fld	DWORD PTR [edi+8]
	mov	DWORD PTR [esi+24], eax
; Line 204
	mov	eax, DWORD PTR [ebx]
	fmul	ST(0), ST(1)
	mov	DWORD PTR [esi+64], eax
; Line 206
	mov	eax, esi
	fstp	DWORD PTR $T94978[esp+36]
	mov	ecx, DWORD PTR $T94978[esp+36]
	mov	DWORD PTR [esi+28], ecx
	fmul	DWORD PTR [edi+12]
	mov	ecx, DWORD PTR [ebx+4]
	mov	DWORD PTR [esi+68], ecx
	fstp	DWORD PTR $T94978[esp+40]
	mov	edx, DWORD PTR $T94978[esp+40]
	mov	DWORD PTR [esi+32], edx
	mov	edx, DWORD PTR [ebx+8]
	mov	DWORD PTR [esi+72], edx
; Line 207
	add	esp, 28					; 0000001cH
	ret	0
?InitDirectionalLight@d3d@@YA?AU_D3DLIGHT9@@PAUD3DXVECTOR3@@PAUD3DXCOLOR@@@Z ENDP ; d3d::InitDirectionalLight
_WHITE	DD	03f800000r			; 1
	DD	03f800000r			; 1
	DD	03f800000r			; 1
	DD	03f800000r			; 1
_BLACK	DB	0cH DUP (?)
	DD	03f800000r			; 1
; Function compile flags: /Ogtpy
;	COMDAT ??__EBLACK@d3d@@YAXXZ
text$yc	SEGMENT
tv173 = -4						; size = 4
??__EBLACK@d3d@@YAXXZ PROC				; d3d::`dynamic initializer for 'BLACK'', COMDAT
; File k:\progs to install\my documents\visual studio 2008\projects\intro 3d game\mine\pick\d3dutility.h
; Line 64
	push	ecx
	fld	QWORD PTR __real@3f70101020000000
	fmul	QWORD PTR __real@0000000000000000
	fstp	DWORD PTR tv173[esp+4]
	fld	DWORD PTR tv173[esp+4]
	fst	DWORD PTR _BLACK
	fst	DWORD PTR _BLACK+4
	fstp	DWORD PTR _BLACK+8
	pop	ecx
	ret	0
??__EBLACK@d3d@@YAXXZ ENDP				; d3d::`dynamic initializer for 'BLACK''
_RED	DD	03f800000r			; 1
	DB	8 DUP(00H)
	DD	03f800000r			; 1
; Function compile flags: /Ogtpy
;	COMDAT ??__ERED@d3d@@YAXXZ
text$yc	SEGMENT
tv176 = -4						; size = 4
??__ERED@d3d@@YAXXZ PROC				; d3d::`dynamic initializer for 'RED'', COMDAT
; Line 65
	push	ecx
	fld	QWORD PTR __real@3f70101020000000
	fmul	QWORD PTR __real@0000000000000000
	fstp	DWORD PTR tv176[esp+4]
	fld	DWORD PTR tv176[esp+4]
	fst	DWORD PTR _RED+4
	fstp	DWORD PTR _RED+8
	pop	ecx
	ret	0
??__ERED@d3d@@YAXXZ ENDP				; d3d::`dynamic initializer for 'RED''
_GREEN	DB	04H DUP (?)
	DD	03f800000r			; 1
	DB	4 DUP(00H)
	DD	03f800000r			; 1
; Function compile flags: /Ogtpy
;	COMDAT ??__EGREEN@d3d@@YAXXZ
text$yc	SEGMENT
tv173 = -4						; size = 4
??__EGREEN@d3d@@YAXXZ PROC				; d3d::`dynamic initializer for 'GREEN'', COMDAT
; Line 66
	push	ecx
	fld	QWORD PTR __real@3f70101020000000
	fmul	QWORD PTR __real@0000000000000000
	fstp	DWORD PTR tv173[esp+4]
	fld	DWORD PTR tv173[esp+4]
	fst	DWORD PTR _GREEN
	fstp	DWORD PTR _GREEN+8
	pop	ecx
	ret	0
??__EGREEN@d3d@@YAXXZ ENDP				; d3d::`dynamic initializer for 'GREEN''
_BLUE	DB	08H DUP (?)
	DD	03f800000r			; 1
	DD	03f800000r			; 1
; Function compile flags: /Ogtpy
;	COMDAT ??__EBLUE@d3d@@YAXXZ
text$yc	SEGMENT
tv173 = -4						; size = 4
??__EBLUE@d3d@@YAXXZ PROC				; d3d::`dynamic initializer for 'BLUE'', COMDAT
; Line 67
	push	ecx
	fld	QWORD PTR __real@3f70101020000000
	fmul	QWORD PTR __real@0000000000000000
	fstp	DWORD PTR tv173[esp+4]
	fld	DWORD PTR tv173[esp+4]
	fst	DWORD PTR _BLUE
	fstp	DWORD PTR _BLUE+4
	pop	ecx
	ret	0
??__EBLUE@d3d@@YAXXZ ENDP				; d3d::`dynamic initializer for 'BLUE''
_YELLOW	DD	03f800000r			; 1
	DD	03f800000r			; 1
	DB	4 DUP(00H)
	DD	03f800000r			; 1
; Function compile flags: /Ogtpy
;	COMDAT ??__EYELLOW@d3d@@YAXXZ
text$yc	SEGMENT
??__EYELLOW@d3d@@YAXXZ PROC				; d3d::`dynamic initializer for 'YELLOW'', COMDAT
; Line 68
	fld	QWORD PTR __real@3f70101020000000
	fmul	QWORD PTR __real@0000000000000000
	fstp	DWORD PTR _YELLOW+8
	ret	0
??__EYELLOW@d3d@@YAXXZ ENDP				; d3d::`dynamic initializer for 'YELLOW''
_CYAN	DB	04H DUP (?)
	DD	03f800000r			; 1
	DD	03f800000r			; 1
	DD	03f800000r			; 1
; Function compile flags: /Ogtpy
;	COMDAT ??__ECYAN@d3d@@YAXXZ
text$yc	SEGMENT
??__ECYAN@d3d@@YAXXZ PROC				; d3d::`dynamic initializer for 'CYAN'', COMDAT
; Line 69
	fld	QWORD PTR __real@3f70101020000000
	fmul	QWORD PTR __real@0000000000000000
	fstp	DWORD PTR _CYAN
	ret	0
??__ECYAN@d3d@@YAXXZ ENDP				; d3d::`dynamic initializer for 'CYAN''
_MAGENTA DD	03f800000r			; 1
	DB	4 DUP(00H)
	DD	03f800000r			; 1
	DD	03f800000r			; 1
; Function compile flags: /Ogtpy
;	COMDAT ??__EMAGENTA@d3d@@YAXXZ
text$yc	SEGMENT
??__EMAGENTA@d3d@@YAXXZ PROC				; d3d::`dynamic initializer for 'MAGENTA'', COMDAT
; Line 70
	fld	QWORD PTR __real@3f70101020000000
	fmul	QWORD PTR __real@0000000000000000
	fstp	DWORD PTR _MAGENTA+4
	ret	0
??__EMAGENTA@d3d@@YAXXZ ENDP				; d3d::`dynamic initializer for 'MAGENTA''
; Function compile flags: /Ogtpy
text$yc	ENDS
;	COMDAT ??__EWHITE_MTRL@d3d@@YAXXZ
text$yc	SEGMENT
$T96770 = -68						; size = 68
??__EWHITE_MTRL@d3d@@YAXXZ PROC				; d3d::`dynamic initializer for 'WHITE_MTRL'', COMDAT
; Line 87
	fld	DWORD PTR __real@40000000
	mov	ecx, DWORD PTR _BLACK
	mov	edx, DWORD PTR _BLACK+4
	sub	esp, 68					; 00000044H
	push	esi
	mov	esi, DWORD PTR _WHITE+8
	push	edi
	mov	edi, DWORD PTR _WHITE+12
	sub	esp, 20					; 00000014H
	fstp	DWORD PTR [esp+16]
	mov	eax, esp
	mov	DWORD PTR [eax], ecx
	mov	ecx, DWORD PTR _BLACK+8
	mov	DWORD PTR [eax+4], edx
	mov	edx, DWORD PTR _BLACK+12
	mov	DWORD PTR [eax+8], ecx
	mov	ecx, DWORD PTR _WHITE
	mov	DWORD PTR [eax+12], edx
	mov	edx, DWORD PTR _WHITE+4
	sub	esp, 16					; 00000010H
	mov	eax, esp
	mov	DWORD PTR [eax], ecx
	mov	DWORD PTR [eax+4], edx
	mov	DWORD PTR [eax+8], esi
	mov	DWORD PTR [eax+12], edi
	sub	esp, 16					; 00000010H
	mov	eax, esp
	mov	DWORD PTR [eax], ecx
	mov	DWORD PTR [eax+4], edx
	mov	DWORD PTR [eax+8], esi
	mov	DWORD PTR [eax+12], edi
	sub	esp, 16					; 00000010H
	mov	eax, esp
	mov	DWORD PTR [eax], ecx
	mov	DWORD PTR [eax+4], edx
	mov	DWORD PTR [eax+8], esi
	mov	DWORD PTR [eax+12], edi
	lea	eax, DWORD PTR $T96770[esp+144]
	call	?InitMtrl@d3d@@YA?AU_D3DMATERIAL9@@UD3DXCOLOR@@000M@Z ; d3d::InitMtrl
	add	esp, 68					; 00000044H
	mov	ecx, 17					; 00000011H
	mov	esi, eax
	mov	edi, OFFSET _WHITE_MTRL
	rep movsd
	pop	edi
	pop	esi
	add	esp, 68					; 00000044H
	ret	0
??__EWHITE_MTRL@d3d@@YAXXZ ENDP				; d3d::`dynamic initializer for 'WHITE_MTRL''
; Function compile flags: /Ogtpy
text$yc	ENDS
;	COMDAT ??__ERED_MTRL@d3d@@YAXXZ
text$yc	SEGMENT
$T96775 = -68						; size = 68
??__ERED_MTRL@d3d@@YAXXZ PROC				; d3d::`dynamic initializer for 'RED_MTRL'', COMDAT
; Line 88
	fld	DWORD PTR __real@40000000
	mov	ecx, DWORD PTR _BLACK
	mov	edx, DWORD PTR _BLACK+4
	sub	esp, 68					; 00000044H
	push	esi
	mov	esi, DWORD PTR _RED+8
	push	edi
	mov	edi, DWORD PTR _RED+12
	sub	esp, 20					; 00000014H
	fstp	DWORD PTR [esp+16]
	mov	eax, esp
	mov	DWORD PTR [eax], ecx
	mov	ecx, DWORD PTR _BLACK+8
	mov	DWORD PTR [eax+4], edx
	mov	edx, DWORD PTR _BLACK+12
	mov	DWORD PTR [eax+8], ecx
	mov	ecx, DWORD PTR _RED
	mov	DWORD PTR [eax+12], edx
	mov	edx, DWORD PTR _RED+4
	sub	esp, 16					; 00000010H
	mov	eax, esp
	mov	DWORD PTR [eax], ecx
	mov	DWORD PTR [eax+4], edx
	mov	DWORD PTR [eax+8], esi
	mov	DWORD PTR [eax+12], edi
	sub	esp, 16					; 00000010H
	mov	eax, esp
	mov	DWORD PTR [eax], ecx
	mov	DWORD PTR [eax+4], edx
	mov	DWORD PTR [eax+8], esi
	mov	DWORD PTR [eax+12], edi
	sub	esp, 16					; 00000010H
	mov	eax, esp
	mov	DWORD PTR [eax], ecx
	mov	DWORD PTR [eax+4], edx
	mov	DWORD PTR [eax+8], esi
	mov	DWORD PTR [eax+12], edi
	lea	eax, DWORD PTR $T96775[esp+144]
	call	?InitMtrl@d3d@@YA?AU_D3DMATERIAL9@@UD3DXCOLOR@@000M@Z ; d3d::InitMtrl
	add	esp, 68					; 00000044H
	mov	ecx, 17					; 00000011H
	mov	esi, eax
	mov	edi, OFFSET _RED_MTRL
	rep movsd
	pop	edi
	pop	esi
	add	esp, 68					; 00000044H
	ret	0
??__ERED_MTRL@d3d@@YAXXZ ENDP				; d3d::`dynamic initializer for 'RED_MTRL''
; Function compile flags: /Ogtpy
text$yc	ENDS
;	COMDAT ??__EGREEN_MTRL@d3d@@YAXXZ
text$yc	SEGMENT
$T96780 = -68						; size = 68
??__EGREEN_MTRL@d3d@@YAXXZ PROC				; d3d::`dynamic initializer for 'GREEN_MTRL'', COMDAT
; Line 89
	fld	DWORD PTR __real@40000000
	mov	ecx, DWORD PTR _BLACK
	mov	edx, DWORD PTR _BLACK+4
	sub	esp, 68					; 00000044H
	push	esi
	mov	esi, DWORD PTR _GREEN+8
	push	edi
	mov	edi, DWORD PTR _GREEN+12
	sub	esp, 20					; 00000014H
	fstp	DWORD PTR [esp+16]
	mov	eax, esp
	mov	DWORD PTR [eax], ecx
	mov	ecx, DWORD PTR _BLACK+8
	mov	DWORD PTR [eax+4], edx
	mov	edx, DWORD PTR _BLACK+12
	mov	DWORD PTR [eax+8], ecx
	mov	ecx, DWORD PTR _GREEN
	mov	DWORD PTR [eax+12], edx
	mov	edx, DWORD PTR _GREEN+4
	sub	esp, 16					; 00000010H
	mov	eax, esp
	mov	DWORD PTR [eax], ecx
	mov	DWORD PTR [eax+4], edx
	mov	DWORD PTR [eax+8], esi
	mov	DWORD PTR [eax+12], edi
	sub	esp, 16					; 00000010H
	mov	eax, esp
	mov	DWORD PTR [eax], ecx
	mov	DWORD PTR [eax+4], edx
	mov	DWORD PTR [eax+8], esi
	mov	DWORD PTR [eax+12], edi
	sub	esp, 16					; 00000010H
	mov	eax, esp
	mov	DWORD PTR [eax], ecx
	mov	DWORD PTR [eax+4], edx
	mov	DWORD PTR [eax+8], esi
	mov	DWORD PTR [eax+12], edi
	lea	eax, DWORD PTR $T96780[esp+144]
	call	?InitMtrl@d3d@@YA?AU_D3DMATERIAL9@@UD3DXCOLOR@@000M@Z ; d3d::InitMtrl
	add	esp, 68					; 00000044H
	mov	ecx, 17					; 00000011H
	mov	esi, eax
	mov	edi, OFFSET _GREEN_MTRL
	rep movsd
	pop	edi
	pop	esi
	add	esp, 68					; 00000044H
	ret	0
??__EGREEN_MTRL@d3d@@YAXXZ ENDP				; d3d::`dynamic initializer for 'GREEN_MTRL''
; Function compile flags: /Ogtpy
text$yc	ENDS
;	COMDAT ??__EBLUE_MTRL@d3d@@YAXXZ
text$yc	SEGMENT
$T96785 = -68						; size = 68
??__EBLUE_MTRL@d3d@@YAXXZ PROC				; d3d::`dynamic initializer for 'BLUE_MTRL'', COMDAT
; Line 90
	fld	DWORD PTR __real@40000000
	mov	ecx, DWORD PTR _BLACK
	mov	edx, DWORD PTR _BLACK+4
	sub	esp, 68					; 00000044H
	push	esi
	mov	esi, DWORD PTR _BLUE+8
	push	edi
	mov	edi, DWORD PTR _BLUE+12
	sub	esp, 20					; 00000014H
	fstp	DWORD PTR [esp+16]
	mov	eax, esp
	mov	DWORD PTR [eax], ecx
	mov	ecx, DWORD PTR _BLACK+8
	mov	DWORD PTR [eax+4], edx
	mov	edx, DWORD PTR _BLACK+12
	mov	DWORD PTR [eax+8], ecx
	mov	ecx, DWORD PTR _BLUE
	mov	DWORD PTR [eax+12], edx
	mov	edx, DWORD PTR _BLUE+4
	sub	esp, 16					; 00000010H
	mov	eax, esp
	mov	DWORD PTR [eax], ecx
	mov	DWORD PTR [eax+4], edx
	mov	DWORD PTR [eax+8], esi
	mov	DWORD PTR [eax+12], edi
	sub	esp, 16					; 00000010H
	mov	eax, esp
	mov	DWORD PTR [eax], ecx
	mov	DWORD PTR [eax+4], edx
	mov	DWORD PTR [eax+8], esi
	mov	DWORD PTR [eax+12], edi
	sub	esp, 16					; 00000010H
	mov	eax, esp
	mov	DWORD PTR [eax], ecx
	mov	DWORD PTR [eax+4], edx
	mov	DWORD PTR [eax+8], esi
	mov	DWORD PTR [eax+12], edi
	lea	eax, DWORD PTR $T96785[esp+144]
	call	?InitMtrl@d3d@@YA?AU_D3DMATERIAL9@@UD3DXCOLOR@@000M@Z ; d3d::InitMtrl
	add	esp, 68					; 00000044H
	mov	ecx, 17					; 00000011H
	mov	esi, eax
	mov	edi, OFFSET _BLUE_MTRL
	rep movsd
	pop	edi
	pop	esi
	add	esp, 68					; 00000044H
	ret	0
??__EBLUE_MTRL@d3d@@YAXXZ ENDP				; d3d::`dynamic initializer for 'BLUE_MTRL''
; Function compile flags: /Ogtpy
text$yc	ENDS
;	COMDAT ??__EYELLOW_MTRL@d3d@@YAXXZ
text$yc	SEGMENT
$T96790 = -68						; size = 68
??__EYELLOW_MTRL@d3d@@YAXXZ PROC			; d3d::`dynamic initializer for 'YELLOW_MTRL'', COMDAT
; Line 91
	fld	DWORD PTR __real@40000000
	mov	ecx, DWORD PTR _BLACK
	mov	edx, DWORD PTR _BLACK+4
	sub	esp, 68					; 00000044H
	push	esi
	mov	esi, DWORD PTR _YELLOW+8
	push	edi
	mov	edi, DWORD PTR _YELLOW+12
	sub	esp, 20					; 00000014H
	fstp	DWORD PTR [esp+16]
	mov	eax, esp
	mov	DWORD PTR [eax], ecx
	mov	ecx, DWORD PTR _BLACK+8
	mov	DWORD PTR [eax+4], edx
	mov	edx, DWORD PTR _BLACK+12
	mov	DWORD PTR [eax+8], ecx
	mov	ecx, DWORD PTR _YELLOW
	mov	DWORD PTR [eax+12], edx
	mov	edx, DWORD PTR _YELLOW+4
	sub	esp, 16					; 00000010H
	mov	eax, esp
	mov	DWORD PTR [eax], ecx
	mov	DWORD PTR [eax+4], edx
	mov	DWORD PTR [eax+8], esi
	mov	DWORD PTR [eax+12], edi
	sub	esp, 16					; 00000010H
	mov	eax, esp
	mov	DWORD PTR [eax], ecx
	mov	DWORD PTR [eax+4], edx
	mov	DWORD PTR [eax+8], esi
	mov	DWORD PTR [eax+12], edi
	sub	esp, 16					; 00000010H
	mov	eax, esp
	mov	DWORD PTR [eax], ecx
	mov	DWORD PTR [eax+4], edx
	mov	DWORD PTR [eax+8], esi
	mov	DWORD PTR [eax+12], edi
	lea	eax, DWORD PTR $T96790[esp+144]
	call	?InitMtrl@d3d@@YA?AU_D3DMATERIAL9@@UD3DXCOLOR@@000M@Z ; d3d::InitMtrl
	add	esp, 68					; 00000044H
	mov	ecx, 17					; 00000011H
	mov	esi, eax
	mov	edi, OFFSET _YELLOW_MTRL
	rep movsd
	pop	edi
	pop	esi
	add	esp, 68					; 00000044H
	ret	0
??__EYELLOW_MTRL@d3d@@YAXXZ ENDP			; d3d::`dynamic initializer for 'YELLOW_MTRL''
_WHITE_MTRL DB	044H DUP (?)
_YELLOW_MTRL DB	044H DUP (?)
_RED_MTRL DB	044H DUP (?)
_GREEN_MTRL DB	044H DUP (?)
_BLUE_MTRL DB	044H DUP (?)
CRT$XCU	SEGMENT
_BLACK$initializer$ DD FLAT:??__EBLACK@d3d@@YAXXZ
_RED$initializer$ DD FLAT:??__ERED@d3d@@YAXXZ
_GREEN$initializer$ DD FLAT:??__EGREEN@d3d@@YAXXZ
_BLUE$initializer$ DD FLAT:??__EBLUE@d3d@@YAXXZ
_YELLOW$initializer$ DD FLAT:??__EYELLOW@d3d@@YAXXZ
_CYAN$initializer$ DD FLAT:??__ECYAN@d3d@@YAXXZ
_MAGENTA$initializer$ DD FLAT:??__EMAGENTA@d3d@@YAXXZ
_WHITE_MTRL$initializer$ DD FLAT:??__EWHITE_MTRL@d3d@@YAXXZ
_RED_MTRL$initializer$ DD FLAT:??__ERED_MTRL@d3d@@YAXXZ
_GREEN_MTRL$initializer$ DD FLAT:??__EGREEN_MTRL@d3d@@YAXXZ
_BLUE_MTRL$initializer$ DD FLAT:??__EBLUE_MTRL@d3d@@YAXXZ
_YELLOW_MTRL$initializer$ DD FLAT:??__EYELLOW_MTRL@d3d@@YAXXZ
CRT$XCU	ENDS
END
